; Function Attrs: mustprogress nounwind uwtable
define hidden void @_ZN19OpenColorIO_v2_4dev18NamedTransformImpl11removeAliasEPKc(ptr noundef nonnull align 8 dereferenceable(224) %this, ptr noundef %name) unnamed_addr #3 align 2 personality ptr @__gxx_personality_v0 {
entry:
  %alias = alloca %"class.std::__cxx11::basic_string", align 8
  %ref.tmp = alloca %"class.std::allocator", align 1
  %tobool.not = icmp eq ptr %name, null
  br i1 %tobool.not, label %if.end, label %land.lhs.true

land.lhs.true:                                    ; preds = %entry
  %0 = load i8, ptr %name, align 1
  %tobool2.not = icmp eq i8 %0, 0
  br i1 %tobool2.not, label %if.end, label %if.then

if.then:                                          ; preds = %land.lhs.true
  call void @_ZNSaIcEC1Ev(ptr noundef nonnull align 1 dereferenceable(1) %ref.tmp) #17
  invoke void @_ZNSt7__cxx1112basic_stringIcSt11char_traitsIcESaIcEEC1EPKcRKS3_(ptr noundef nonnull align 8 dereferenceable(32) %alias, ptr noundef nonnull %name, ptr noundef nonnull align 1 dereferenceable(1) %ref.tmp)
          to label %invoke.cont unwind label %terminate.lpad

invoke.cont:                                      ; preds = %if.then
  call void @_ZNSaIcED1Ev(ptr noundef nonnull align 1 dereferenceable(1) %ref.tmp) #17
  %m_aliases = getelementptr inbounds i8, ptr %this, i64 40
  %call = invoke noundef zeroext i1 @_ZN11StringUtils6RemoveERSt6vectorINSt7__cxx1112basic_stringIcSt11char_traitsIcESaIcEEESaIS6_EERKS6_(ptr noundef nonnull align 8 dereferenceable(24) %m_aliases, ptr noundef nonnull align 8 dereferenceable(32) %alias)
          to label %invoke.cont3 unwind label %terminate.lpad

invoke.cont3:                                     ; preds = %invoke.cont
  call void @_ZNSt7__cxx1112basic_stringIcSt11char_traitsIcESaIcEED1Ev(ptr noundef nonnull align 8 dereferenceable(32) %alias) #17
  br label %if.end

if.end:                                           ; preds = %invoke.cont3, %land.lhs.true, %entry
  ret void

terminate.lpad:                                   ; preds = %invoke.cont, %if.then
  %1 = landingpad { ptr, i32 }
          catch ptr null
  %2 = extractvalue { ptr, i32 } %1, 0
  call void @__clang_call_terminate(ptr %2) #19
  unreachable
}